; ModuleID = 'source-C-CXX/26/1353.c'
source_filename = "source-C-CXX/26/1353.c"
target datalayout = "e-m:e-p270:32:32-p271:32:32-p272:64:64-i64:64-f80:128-n8:16:32:64-S128"
target triple = "x86_64-pc-linux-gnu"

@.str = private unnamed_addr constant [3 x i8] c"%d\00", align 1
@.str.1 = private unnamed_addr constant [10 x i8] c"%lf%lf%lf\00", align 1
@.str.2 = private unnamed_addr constant [13 x i8] c"x1=x2=%.5lf\0A\00", align 1
@.str.3 = private unnamed_addr constant [19 x i8] c"x1=%.5lf;x2=%.5lf\0A\00", align 1
@.str.4 = private unnamed_addr constant [33 x i8] c"x1=%.5lf+%.5lfi;x2=%.5lf-%.5lfi\0A\00", align 1

; Function Attrs: nofree nounwind sspstrong uwtable
define dso_local i32 @main(i32 %0, i8** nocapture readnone %1) local_unnamed_addr #0 {
  %3 = alloca double, align 8
  %4 = alloca double, align 8
  %5 = alloca double, align 8
  %6 = alloca i32, align 4
  %7 = bitcast double* %3 to i8*
  call void @llvm.lifetime.start.p0i8(i64 8, i8* nonnull %7) #4
  %8 = bitcast double* %4 to i8*
  call void @llvm.lifetime.start.p0i8(i64 8, i8* nonnull %8) #4
  %9 = bitcast double* %5 to i8*
  call void @llvm.lifetime.start.p0i8(i64 8, i8* nonnull %9) #4
  %10 = bitcast i32* %6 to i8*
  call void @llvm.lifetime.start.p0i8(i64 4, i8* nonnull %10) #4
  %11 = call i32 (i8*, ...) @__isoc99_scanf(i8* getelementptr inbounds ([3 x i8], [3 x i8]* @.str, i64 0, i64 0), i32* nonnull %6)
  %12 = load i32, i32* %6, align 4, !tbaa !5
  %13 = icmp sgt i32 %12, 0
  br i1 %13, label %14, label %80

14:                                               ; preds = %2, %76
  %15 = phi i32 [ %77, %76 ], [ 0, %2 ]
  %16 = call i32 (i8*, ...) @__isoc99_scanf(i8* getelementptr inbounds ([10 x i8], [10 x i8]* @.str.1, i64 0, i64 0), double* nonnull %3, double* nonnull %4, double* nonnull %5)
  %17 = load double, double* %4, align 8, !tbaa !9
  %18 = fmul double %17, %17
  %19 = load double, double* %3, align 8, !tbaa !9
  %20 = fmul double %19, 4.000000e+00
  %21 = load double, double* %5, align 8, !tbaa !9
  %22 = fmul double %20, %21
  %23 = fsub double %18, %22
  %24 = fcmp oeq double %23, 0.000000e+00
  br i1 %24, label %25, label %30

25:                                               ; preds = %14
  %26 = fneg double %17
  %27 = fmul double %19, 2.000000e+00
  %28 = fdiv double %26, %27
  %29 = call i32 (i8*, ...) @printf(i8* nonnull dereferenceable(1) getelementptr inbounds ([13 x i8], [13 x i8]* @.str.2, i64 0, i64 0), double %28)
  br label %30

30:                                               ; preds = %25, %14
  %31 = fcmp ogt double %23, 0.000000e+00
  br i1 %31, label %32, label %58

32:                                               ; preds = %30
  %33 = load double, double* %4, align 8, !tbaa !9
  %34 = fmul double %33, %33
  %35 = load double, double* %3, align 8, !tbaa !9
  %36 = fmul double %35, 4.000000e+00
  %37 = load double, double* %5, align 8, !tbaa !9
  %38 = fmul double %36, %37
  %39 = fsub double %34, %38
  %40 = call double @sqrt(double %39) #4
  %41 = fsub double %40, %33
  %42 = load double, double* %3, align 8, !tbaa !9
  %43 = fmul double %42, 2.000000e+00
  %44 = fdiv double %41, %43
  %45 = load double, double* %4, align 8, !tbaa !9
  %46 = fneg double %45
  %47 = fmul double %45, %45
  %48 = fmul double %42, 4.000000e+00
  %49 = load double, double* %5, align 8, !tbaa !9
  %50 = fmul double %48, %49
  %51 = fsub double %47, %50
  %52 = call double @sqrt(double %51) #4
  %53 = fsub double %46, %52
  %54 = load double, double* %3, align 8, !tbaa !9
  %55 = fmul double %54, 2.000000e+00
  %56 = fdiv double %53, %55
  %57 = call i32 (i8*, ...) @printf(i8* nonnull dereferenceable(1) getelementptr inbounds ([19 x i8], [19 x i8]* @.str.3, i64 0, i64 0), double %44, double %56)
  br label %58

58:                                               ; preds = %32, %30
  %59 = fcmp olt double %23, 0.000000e+00
  br i1 %59, label %60, label %76

60:                                               ; preds = %58
  %61 = load double, double* %4, align 8, !tbaa !9
  %62 = fneg double %61
  %63 = load double, double* %3, align 8, !tbaa !9
  %64 = fmul double %63, 2.000000e+00
  %65 = fdiv double %62, %64
  %66 = fmul double %63, 4.000000e+00
  %67 = load double, double* %5, align 8, !tbaa !9
  %68 = fmul double %66, %67
  %69 = fmul double %61, %61
  %70 = fsub double %68, %69
  %71 = call double @sqrt(double %70) #4
  %72 = load double, double* %3, align 8, !tbaa !9
  %73 = fmul double %72, 2.000000e+00
  %74 = fdiv double %71, %73
  %75 = call i32 (i8*, ...) @printf(i8* nonnull dereferenceable(1) getelementptr inbounds ([33 x i8], [33 x i8]* @.str.4, i64 0, i64 0), double %65, double %74, double %65, double %74)
  br label %76

76:                                               ; preds = %58, %60
  %77 = add nuw nsw i32 %15, 1
  %78 = load i32, i32* %6, align 4, !tbaa !5
  %79 = icmp slt i32 %77, %78
  br i1 %79, label %14, label %80, !llvm.loop !11

80:                                               ; preds = %76, %2
  call void @llvm.lifetime.end.p0i8(i64 4, i8* nonnull %10) #4
  call void @llvm.lifetime.end.p0i8(i64 8, i8* nonnull %9) #4
  call void @llvm.lifetime.end.p0i8(i64 8, i8* nonnull %8) #4
  call void @llvm.lifetime.end.p0i8(i64 8, i8* nonnull %7) #4
  ret i32 0
}

; Function Attrs: argmemonly mustprogress nofree nosync nounwind willreturn
declare void @llvm.lifetime.start.p0i8(i64 immarg, i8* nocapture) #1

; Function Attrs: nofree nounwind
declare noundef i32 @__isoc99_scanf(i8* nocapture noundef readonly, ...) local_unnamed_addr #2

; Function Attrs: nofree nounwind
declare noundef i32 @printf(i8* nocapture noundef readonly, ...) local_unnamed_addr #2

; Function Attrs: mustprogress nofree nounwind willreturn
declare double @sqrt(double) local_unnamed_addr #3

; Function Attrs: argmemonly mustprogress nofree nosync nounwind willreturn
declare void @llvm.lifetime.end.p0i8(i64 immarg, i8* nocapture) #1


!llvm.module.flags = !{!0, !1, !2, !3}
!llvm.ident = !{!4}

!0 = !{i32 1, !"wchar_size", i32 4}
!1 = !{i32 7, !"PIC Level", i32 2}
!2 = !{i32 7, !"PIE Level", i32 2}
!3 = !{i32 7, !"uwtable", i32 1}
!4 = !{!"clang version 13.0.0"}
!5 = !{!6, !6, i64 0}
!6 = !{!"int", !7, i64 0}
!7 = !{!"omnipotent char", !8, i64 0}
!8 = !{!"Simple C/C++ TBAA"}
!9 = !{!10, !10, i64 0}
!10 = !{!"double", !7, i64 0}
!11 = distinct !{!11, !12}
!12 = !{!"llvm.loop.mustprogress"}
